target datalayout = "e-m:e-p270:32:32-p271:32:32-p272:64:64-i64:64-i128:128-f80:128-n8:16:32:64-S128"
target triple = "x86_64-pc-linux-gnu"

%struct.QemuMutex = type { %union.pthread_mutex_t, i8 }
%union.pthread_mutex_t = type { %struct.__pthread_mutex_s }
%struct.__pthread_mutex_s = type { i32, i32, i32, i32, i32, i16, i16, %struct.__pthread_internal_list }
%struct.__pthread_internal_list = type { ptr, ptr }
%struct.BlockJob = type { %struct.Job, i32, i64, %struct.RateLimit, ptr, %struct.Notifier, %struct.Notifier, %struct.Notifier, %struct.Notifier, %struct.Notifier, ptr }
%struct.Job = type { ptr, ptr, ptr, i8, i8, ptr, ptr, %struct.ProgressMeter, ptr, i32, i32, %struct.QEMUTimer, i32, i8, i8, i8, i8, i8, i8, i32, ptr, %struct.NotifierList, %struct.NotifierList, %struct.NotifierList, %struct.NotifierList, %struct.NotifierList, %struct.anon.0, ptr, %struct.anon.1 }
%struct.ProgressMeter = type { i64, i64, %struct.QemuMutex }
%struct.QEMUTimer = type { i64, ptr, ptr, ptr, ptr, i32, i32 }
%struct.NotifierList = type { %struct.anon }
%struct.anon = type { ptr }
%struct.anon.0 = type { ptr, ptr }
%struct.anon.1 = type { ptr, ptr }
%struct.RateLimit = type { %struct.QemuMutex, i64, i64, i64, i64, i64 }
%struct.Notifier = type { ptr, %struct.anon.2 }
%struct.anon.2 = type { ptr, ptr }
%struct._GSList = type { ptr, ptr }
%struct.BdrvChild = type { ptr, ptr, ptr, i32, ptr, i64, i64, i8, i8, %struct.anon.3, %struct.anon.4 }
%struct.anon.3 = type { ptr, ptr }
%struct.anon.4 = type { ptr, ptr }

@.str = private unnamed_addr constant [22 x i8] c"qemu_in_main_thread()\00", align 1
@.str.1 = private unnamed_addr constant [19 x i8] c"../qemu/blockjob.c\00", align 1
@__PRETTY_FUNCTION__.block_job_remove_all_bdrv = private unnamed_addr constant [43 x i8] c"void block_job_remove_all_bdrv(BlockJob *)\00", align 1

; Function Attrs: nounwind sspstrong uwtable
define dso_local void @block_job_remove_all_bdrv(ptr noundef %0) #0 {
  %2 = alloca ptr, align 8
  %3 = alloca ptr, align 8
  %4 = alloca ptr, align 8
  store ptr %0, ptr %2, align 8
  br label %5

5:                                                ; preds = %1
  %6 = call zeroext i1 @qemu_in_main_thread()
  br i1 %6, label %7, label %8

7:                                                ; preds = %5
  br label %9

8:                                                ; preds = %5
  call void @__assert_fail(ptr noundef @.str, ptr noundef @.str.1, i32 noundef 194, ptr noundef @__PRETTY_FUNCTION__.block_job_remove_all_bdrv) #13
  unreachable

9:                                                ; preds = %7
  br label %10

10:                                               ; preds = %9
  call void @bdrv_graph_wrlock()
  br label %11

11:                                               ; preds = %16, %10
  %12 = load ptr, ptr %2, align 8
  %13 = getelementptr inbounds nuw %struct.BlockJob, ptr %12, i32 0, i32 10
  %14 = load ptr, ptr %13, align 8
  %15 = icmp ne ptr %14, null
  br i1 %15, label %16, label %36

16:                                               ; preds = %11
  call void @llvm.lifetime.start.p0(i64 8, ptr %3) #12
  %17 = load ptr, ptr %2, align 8
  %18 = getelementptr inbounds nuw %struct.BlockJob, ptr %17, i32 0, i32 10
  %19 = load ptr, ptr %18, align 8
  store ptr %19, ptr %3, align 8
  call void @llvm.lifetime.start.p0(i64 8, ptr %4) #12
  %20 = load ptr, ptr %3, align 8
  %21 = getelementptr inbounds nuw %struct._GSList, ptr %20, i32 0, i32 0
  %22 = load ptr, ptr %21, align 8
  store ptr %22, ptr %4, align 8
  %23 = load ptr, ptr %3, align 8
  %24 = getelementptr inbounds nuw %struct._GSList, ptr %23, i32 0, i32 1
  %25 = load ptr, ptr %24, align 8
  %26 = load ptr, ptr %2, align 8
  %27 = getelementptr inbounds nuw %struct.BlockJob, ptr %26, i32 0, i32 10
  store ptr %25, ptr %27, align 8
  %28 = load ptr, ptr %4, align 8
  %29 = getelementptr inbounds nuw %struct.BdrvChild, ptr %28, i32 0, i32 0
  %30 = load ptr, ptr %29, align 8
  %31 = load ptr, ptr %2, align 8
  %32 = getelementptr inbounds nuw %struct.BlockJob, ptr %31, i32 0, i32 4
  %33 = load ptr, ptr %32, align 8
  call void @bdrv_op_unblock_all(ptr noundef %30, ptr noundef %33)
  %34 = load ptr, ptr %4, align 8
  call void @bdrv_root_unref_child(ptr noundef %34)
  %35 = load ptr, ptr %3, align 8
  call void @g_slist_free_1(ptr noundef %35)
  call void @llvm.lifetime.end.p0(i64 8, ptr %4) #12
  call void @llvm.lifetime.end.p0(i64 8, ptr %3) #12
  br label %11, !llvm.loop !7

36:                                               ; preds = %11
  call void @bdrv_graph_wrunlock()
  ret void
}