; Function Attrs: nounwind sspstrong uwtable
define dso_local void @block_job_remove_all_bdrv(ptr noundef captures(none) %0) local_unnamed_addr #0 {
  %2 = tail call zeroext i1 @qemu_in_main_thread() #8
  br i1 %2, label %4, label %3

3:                                                ; preds = %1
  tail call void @__assert_fail(ptr noundef nonnull @.str, ptr noundef nonnull @.str.1, i32 noundef 194, ptr noundef nonnull @__PRETTY_FUNCTION__.block_job_remove_all_bdrv) #9
  unreachable

4:                                                ; preds = %1
  tail call void @bdrv_graph_wrlock() #8
  %5 = getelementptr inbounds nuw i8, ptr %0, i64 512
  %6 = load ptr, ptr %5, align 8
  %.not9 = icmp eq ptr %6, null
  br i1 %.not9, label %._crit_edge, label %.lr.ph

.lr.ph:                                           ; preds = %4
  %7 = getelementptr inbounds nuw i8, ptr %0, i64 384
  br label %8

8:                                                ; preds = %.lr.ph, %8
  %9 = phi ptr [ %6, %.lr.ph ], [ %15, %8 ]
  %10 = load ptr, ptr %9, align 8
  %11 = getelementptr inbounds nuw i8, ptr %9, i64 8
  %12 = load ptr, ptr %11, align 8
  store ptr %12, ptr %5, align 8
  %13 = load ptr, ptr %10, align 8
  %14 = load ptr, ptr %7, align 8
  tail call void @bdrv_op_unblock_all(ptr noundef %13, ptr noundef %14) #8
  tail call void @bdrv_root_unref_child(ptr noundef nonnull %10) #8
  tail call void @g_slist_free_1(ptr noundef nonnull %9) #8
  %15 = load ptr, ptr %5, align 8
  %.not = icmp eq ptr %15, null
  br i1 %.not, label %._crit_edge, label %8, !llvm.loop !6

._crit_edge:                                      ; preds = %8, %4
  tail call void @bdrv_graph_wrunlock() #8
  ret void
}